; Function Attrs: nofree norecurse nosync nounwind memory(argmem: readwrite) uwtable
define internal fastcc void @unquantize_inter_differences(ptr noundef nonnull writeonly captures(none) %0, i32 noundef %1, i32 noundef range(i32 2, -2147483648) %2, double noundef %3, ptr noundef readonly captures(none) %4) unnamed_addr #6 {
  %6 = icmp sgt i32 %1, 0
  br i1 %6, label %.preheader.preheader, label %._crit_edge

.preheader.preheader:                             ; preds = %5
  %wide.trip.count44 = zext nneg i32 %1 to i64
  %wide.trip.count = zext nneg i32 %2 to i64
  br label %.preheader

.preheader:                                       ; preds = %.preheader.preheader, %31
  %indvars.iv41 = phi i64 [ 0, %.preheader.preheader ], [ %indvars.iv.next42, %31 ]
  %7 = mul nuw nsw i64 %indvars.iv41, 3
  %8 = trunc nuw nsw i64 %indvars.iv41 to i32
  br label %9

9:                                                ; preds = %.preheader, %30
  %indvars.iv37 = phi i64 [ 0, %.preheader ], [ %indvars.iv.next38, %30 ]
  %10 = add nuw nsw i64 %indvars.iv37, %7
  %11 = getelementptr inbounds nuw i32, ptr %4, i64 %10
  %12 = load i32, ptr %11, align 4, !tbaa !3
  %13 = sitofp i32 %12 to double
  %14 = fmul double %3, %13
  %15 = getelementptr inbounds nuw double, ptr %0, i64 %10
  store double %14, ptr %15, align 8, !tbaa !21
  %16 = trunc nuw nsw i64 %indvars.iv37 to i32
  br label %17

17:                                               ; preds = %9, %17
  %indvars.iv = phi i64 [ 1, %9 ], [ %indvars.iv.next, %17 ]
  %.033 = phi i32 [ %12, %9 ], [ %26, %17 ]
  %18 = trunc i64 %indvars.iv to i32
  %19 = mul i32 %1, %18
  %20 = add nuw i32 %19, %8
  %21 = mul i32 %20, 3
  %22 = add nsw i32 %21, %16
  %23 = sext i32 %22 to i64
  %24 = getelementptr inbounds i32, ptr %4, i64 %23
  %25 = load i32, ptr %24, align 4, !tbaa !3
  %26 = add nsw i32 %25, %.033
  %27 = sitofp i32 %26 to double
  %28 = fmul double %3, %27
  %29 = getelementptr inbounds double, ptr %0, i64 %23
  store double %28, ptr %29, align 8, !tbaa !21
  %indvars.iv.next = add nuw nsw i64 %indvars.iv, 1
  %exitcond.not = icmp eq i64 %indvars.iv.next, %wide.trip.count
  br i1 %exitcond.not, label %30, label %17, !llvm.loop !57

30:                                               ; preds = %17
  %indvars.iv.next38 = add nuw nsw i64 %indvars.iv37, 1
  %exitcond40.not = icmp eq i64 %indvars.iv.next38, 3
  br i1 %exitcond40.not, label %31, label %9, !llvm.loop !58

31:                                               ; preds = %30
  %indvars.iv.next42 = add nuw nsw i64 %indvars.iv41, 1
  %exitcond45.not = icmp eq i64 %indvars.iv.next42, %wide.trip.count44
  br i1 %exitcond45.not, label %._crit_edge, label %.preheader, !llvm.loop !59

._crit_edge:                                      ; preds = %31, %5
  ret void
}